target datalayout = "e-m:e-p270:32:32-p271:32:32-p272:64:64-i64:64-i128:128-f80:128-n8:16:32:64-S128"
target triple = "x86_64-pc-linux-gnu"

%class.RSCoder = type <{ [512 x i32], [256 x i32], [1024 x i32], [256 x i32], i32, [256 x i32], i32, [512 x i32], i8, [3 x i8] }>

; Function Attrs: mustprogress nounwind uwtable
define linkonce_odr noundef i32 @_ZN7RSCoder6gfMultEii(ptr noundef nonnull align 4 dereferenceable(11273) %0, i32 noundef %1, i32 noundef %2) #1 comdat align 2 {
  %4 = alloca ptr, align 8
  %5 = alloca i32, align 4
  %6 = alloca i32, align 4
  store ptr %0, ptr %4, align 8
  store i32 %1, ptr %5, align 4
  store i32 %2, ptr %6, align 4
  %7 = load ptr, ptr %4, align 8
  %8 = load i32, ptr %5, align 4
  %9 = icmp eq i32 %8, 0
  br i1 %9, label %13, label %10

10:                                               ; preds = %3
  %11 = load i32, ptr %6, align 4
  %12 = icmp eq i32 %11, 0
  br i1 %12, label %13, label %14

13:                                               ; preds = %10, %3
  br label %30

14:                                               ; preds = %10
  %15 = getelementptr inbounds %class.RSCoder, ptr %7, i32 0, i32 0
  %16 = getelementptr inbounds %class.RSCoder, ptr %7, i32 0, i32 1
  %17 = load i32, ptr %5, align 4
  %18 = sext i32 %17 to i64
  %19 = getelementptr inbounds [256 x i32], ptr %16, i64 0, i64 %18
  %20 = load i32, ptr %19, align 4
  %21 = getelementptr inbounds %class.RSCoder, ptr %7, i32 0, i32 1
  %22 = load i32, ptr %6, align 4
  %23 = sext i32 %22 to i64
  %24 = getelementptr inbounds [256 x i32], ptr %21, i64 0, i64 %23
  %25 = load i32, ptr %24, align 4
  %26 = add nsw i32 %20, %25
  %27 = sext i32 %26 to i64
  %28 = getelementptr inbounds [512 x i32], ptr %15, i64 0, i64 %27
  %29 = load i32, ptr %28, align 4
  br label %30

30:                                               ; preds = %14, %13
  %31 = phi i32 [ 0, %13 ], [ %29, %14 ]
  ret i32 %31
}

; Function Attrs: mustprogress uwtable
define void @_ZN7RSCoder6EncodeEPhiS0_(ptr noundef nonnull align 4 dereferenceable(11273) %0, ptr noundef %1, i32 noundef %2, ptr noundef %3) #0 align 2 {
  %5 = alloca ptr, align 8
  %6 = alloca ptr, align 8
  %7 = alloca i32, align 4
  %8 = alloca ptr, align 8
  %9 = alloca [256 x i32], align 16
  %10 = alloca i32, align 4
  %11 = alloca i32, align 4
  %12 = alloca i32, align 4
  %13 = alloca i32, align 4
  %14 = alloca i32, align 4
  store ptr %0, ptr %5, align 8
  store ptr %1, ptr %6, align 8
  store i32 %2, ptr %7, align 4
  store ptr %3, ptr %8, align 8
  %15 = load ptr, ptr %5, align 8
  store i32 0, ptr %10, align 4
  br label %16

16:                                               ; preds = %26, %4
  %17 = load i32, ptr %10, align 4
  %18 = getelementptr inbounds %class.RSCoder, ptr %15, i32 0, i32 6
  %19 = load i32, ptr %18, align 4
  %20 = add nsw i32 %19, 1
  %21 = icmp slt i32 %17, %20
  br i1 %21, label %22, label %29

22:                                               ; preds = %16
  %23 = load i32, ptr %10, align 4
  %24 = sext i32 %23 to i64
  %25 = getelementptr inbounds [256 x i32], ptr %9, i64 0, i64 %24
  store i32 0, ptr %25, align 4
  br label %26

26:                                               ; preds = %22
  %27 = load i32, ptr %10, align 4
  %28 = add nsw i32 %27, 1
  store i32 %28, ptr %10, align 4
  br label %16, !llvm.loop !14

29:                                               ; preds = %16
  store i32 0, ptr %11, align 4
  br label %30

30:                                               ; preds = %81, %29
  %31 = load i32, ptr %11, align 4
  %32 = load i32, ptr %7, align 4
  %33 = icmp slt i32 %31, %32
  br i1 %33, label %34, label %84

34:                                               ; preds = %30
  %35 = load ptr, ptr %6, align 8
  %36 = load i32, ptr %11, align 4
  %37 = sext i32 %36 to i64
  %38 = getelementptr inbounds i8, ptr %35, i64 %37
  %39 = load i8, ptr %38, align 1
  %40 = zext i8 %39 to i32
  %41 = getelementptr inbounds %class.RSCoder, ptr %15, i32 0, i32 6
  %42 = load i32, ptr %41, align 4
  %43 = sub nsw i32 %42, 1
  %44 = sext i32 %43 to i64
  %45 = getelementptr inbounds [256 x i32], ptr %9, i64 0, i64 %44
  %46 = load i32, ptr %45, align 4
  %47 = xor i32 %40, %46
  store i32 %47, ptr %12, align 4
  %48 = getelementptr inbounds %class.RSCoder, ptr %15, i32 0, i32 6
  %49 = load i32, ptr %48, align 4
  %50 = sub nsw i32 %49, 1
  store i32 %50, ptr %13, align 4
  br label %51

51:                                               ; preds = %71, %34
  %52 = load i32, ptr %13, align 4
  %53 = icmp sgt i32 %52, 0
  br i1 %53, label %54, label %74

54:                                               ; preds = %51
  %55 = load i32, ptr %13, align 4
  %56 = sub nsw i32 %55, 1
  %57 = sext i32 %56 to i64
  %58 = getelementptr inbounds [256 x i32], ptr %9, i64 0, i64 %57
  %59 = load i32, ptr %58, align 4
  %60 = getelementptr inbounds %class.RSCoder, ptr %15, i32 0, i32 2
  %61 = load i32, ptr %13, align 4
  %62 = sext i32 %61 to i64
  %63 = getelementptr inbounds [1024 x i32], ptr %60, i64 0, i64 %62
  %64 = load i32, ptr %63, align 4
  %65 = load i32, ptr %12, align 4
  %66 = call noundef i32 @_ZN7RSCoder6gfMultEii(ptr noundef nonnull align 4 dereferenceable(11273) %15, i32 noundef %64, i32 noundef %65)
  %67 = xor i32 %59, %66
  %68 = load i32, ptr %13, align 4
  %69 = sext i32 %68 to i64
  %70 = getelementptr inbounds [256 x i32], ptr %9, i64 0, i64 %69
  store i32 %67, ptr %70, align 4
  br label %71

71:                                               ; preds = %54
  %72 = load i32, ptr %13, align 4
  %73 = add nsw i32 %72, -1
  store i32 %73, ptr %13, align 4
  br label %51, !llvm.loop !15

74:                                               ; preds = %51
  %75 = getelementptr inbounds %class.RSCoder, ptr %15, i32 0, i32 2
  %76 = getelementptr inbounds [1024 x i32], ptr %75, i64 0, i64 0
  %77 = load i32, ptr %76, align 4
  %78 = load i32, ptr %12, align 4
  %79 = call noundef i32 @_ZN7RSCoder6gfMultEii(ptr noundef nonnull align 4 dereferenceable(11273) %15, i32 noundef %77, i32 noundef %78)
  %80 = getelementptr inbounds [256 x i32], ptr %9, i64 0, i64 0
  store i32 %79, ptr %80, align 16
  br label %81

81:                                               ; preds = %74
  %82 = load i32, ptr %11, align 4
  %83 = add nsw i32 %82, 1
  store i32 %83, ptr %11, align 4
  br label %30, !llvm.loop !16

84:                                               ; preds = %30
  store i32 0, ptr %14, align 4
  br label %85

85:                                               ; preds = %104, %84
  %86 = load i32, ptr %14, align 4
  %87 = getelementptr inbounds %class.RSCoder, ptr %15, i32 0, i32 6
  %88 = load i32, ptr %87, align 4
  %89 = icmp slt i32 %86, %88
  br i1 %89, label %90, label %107

90:                                               ; preds = %85
  %91 = getelementptr inbounds %class.RSCoder, ptr %15, i32 0, i32 6
  %92 = load i32, ptr %91, align 4
  %93 = load i32, ptr %14, align 4
  %94 = sub nsw i32 %92, %93
  %95 = sub nsw i32 %94, 1
  %96 = sext i32 %95 to i64
  %97 = getelementptr inbounds [256 x i32], ptr %9, i64 0, i64 %96
  %98 = load i32, ptr %97, align 4
  %99 = trunc i32 %98 to i8
  %100 = load ptr, ptr %8, align 8
  %101 = load i32, ptr %14, align 4
  %102 = sext i32 %101 to i64
  %103 = getelementptr inbounds i8, ptr %100, i64 %102
  store i8 %99, ptr %103, align 1
  br label %104

104:                                              ; preds = %90
  %105 = load i32, ptr %14, align 4
  %106 = add nsw i32 %105, 1
  store i32 %106, ptr %14, align 4
  br label %85, !llvm.loop !17

107:                                              ; preds = %85
  ret void
}