; Function Attrs: mustprogress nofree norecurse nosync nounwind memory(argmem: readwrite) uwtable
define void @_ZN7RSCoder6EncodeEPhiS0_(ptr nocapture noundef nonnull readonly align 4 dereferenceable(11273) %0, ptr nocapture noundef readonly %1, i32 noundef %2, ptr nocapture noundef writeonly %3) local_unnamed_addr #0 align 2 {
  %5 = alloca [256 x i32], align 16
  %6 = getelementptr inbounds i8, ptr %0, i64 9220
  %7 = load i32, ptr %6, align 4
  %.not28 = icmp slt i32 %7, 0
  br i1 %.not28, label %.preheader26, label %.lr.ph.preheader

.lr.ph.preheader:                                 ; preds = %4
  %8 = add nuw i32 %7, 1
  %9 = zext i32 %8 to i64
  %10 = shl nuw nsw i64 %9, 2
  call void @llvm.memset.p0.i64(ptr noundef nonnull align 16 dereferenceable(1) %5, i8 0, i64 %10, i1 false)
  br label %.preheader26

.preheader26:                                     ; preds = %.lr.ph.preheader, %4
  %11 = icmp sgt i32 %2, 0
  br i1 %11, label %.lr.ph33, label %.preheader

.lr.ph33:                                         ; preds = %.preheader26
  %12 = add i32 %7, -1
  %13 = sext i32 %12 to i64
  %14 = getelementptr inbounds [256 x i32], ptr %5, i64 0, i64 %13
  %15 = icmp sgt i32 %7, 1
  %16 = getelementptr inbounds i8, ptr %0, i64 3072
  %17 = getelementptr inbounds i8, ptr %0, i64 2048
  %18 = load i32, ptr %16, align 4
  %.fr43 = freeze i32 %18
  %19 = icmp eq i32 %.fr43, 0
  %20 = sext i32 %.fr43 to i64
  %21 = getelementptr inbounds [256 x i32], ptr %17, i64 0, i64 %20
  br i1 %15, label %.lr.ph31.us.preheader, label %.lr.ph33.split

.lr.ph31.us.preheader:                            ; preds = %.lr.ph33
  %22 = zext nneg i32 %12 to i64
  %wide.trip.count58 = zext nneg i32 %2 to i64
  br label %.lr.ph31.us

.lr.ph31.us:                                      ; preds = %.lr.ph31.us.preheader, %_ZN7RSCoder6gfMultEii.exit25.us
  %indvars.iv55 = phi i64 [ 0, %.lr.ph31.us.preheader ], [ %indvars.iv.next56, %_ZN7RSCoder6gfMultEii.exit25.us ]
  %23 = getelementptr inbounds i8, ptr %1, i64 %indvars.iv55
  %24 = load i8, ptr %23, align 1
  %25 = zext i8 %24 to i32
  %26 = load i32, ptr %14, align 4
  %27 = xor i32 %26, %25
  %.fr = freeze i32 %27
  %28 = icmp eq i32 %.fr, 0
  %29 = sext i32 %.fr to i64
  %30 = getelementptr inbounds [256 x i32], ptr %17, i64 0, i64 %29
  br i1 %28, label %_ZN7RSCoder6gfMultEii.exit.us.us, label %.lr.ph31.split.us37

31:                                               ; preds = %._crit_edge.us
  %32 = load i32, ptr %21, align 4
  %33 = load i32, ptr %30, align 4
  %34 = add nsw i32 %33, %32
  %35 = sext i32 %34 to i64
  %36 = getelementptr inbounds [512 x i32], ptr %0, i64 0, i64 %35
  %37 = load i32, ptr %36, align 4
  br label %_ZN7RSCoder6gfMultEii.exit25.us

_ZN7RSCoder6gfMultEii.exit25.us:                  ; preds = %31, %._crit_edge.us
  %38 = phi i32 [ %37, %31 ], [ 0, %._crit_edge.us ]
  store i32 %38, ptr %5, align 16
  %indvars.iv.next56 = add nuw nsw i64 %indvars.iv55, 1
  %exitcond59.not = icmp eq i64 %indvars.iv.next56, %wide.trip.count58
  br i1 %exitcond59.not, label %.preheader, label %.lr.ph31.us, !llvm.loop !11

.lr.ph31.split.us37:                              ; preds = %.lr.ph31.us, %_ZN7RSCoder6gfMultEii.exit.us35
  %indvars.iv49 = phi i64 [ %indvars.iv.next50, %_ZN7RSCoder6gfMultEii.exit.us35 ], [ %22, %.lr.ph31.us ]
  %indvars.iv.next50 = add nsw i64 %indvars.iv49, -1
  %39 = getelementptr inbounds [256 x i32], ptr %5, i64 0, i64 %indvars.iv.next50
  %40 = load i32, ptr %39, align 4
  %41 = getelementptr inbounds [1024 x i32], ptr %16, i64 0, i64 %indvars.iv49
  %42 = load i32, ptr %41, align 4
  %43 = icmp eq i32 %42, 0
  br i1 %43, label %_ZN7RSCoder6gfMultEii.exit.us35, label %44

44:                                               ; preds = %.lr.ph31.split.us37
  %45 = sext i32 %42 to i64
  %46 = getelementptr inbounds [256 x i32], ptr %17, i64 0, i64 %45
  %47 = load i32, ptr %46, align 4
  %48 = load i32, ptr %30, align 4
  %49 = add nsw i32 %48, %47
  %50 = sext i32 %49 to i64
  %51 = getelementptr inbounds [512 x i32], ptr %0, i64 0, i64 %50
  %52 = load i32, ptr %51, align 4
  br label %_ZN7RSCoder6gfMultEii.exit.us35

_ZN7RSCoder6gfMultEii.exit.us35:                  ; preds = %44, %.lr.ph31.split.us37
  %53 = phi i32 [ %52, %44 ], [ 0, %.lr.ph31.split.us37 ]
  %54 = xor i32 %53, %40
  %55 = getelementptr inbounds [256 x i32], ptr %5, i64 0, i64 %indvars.iv49
  store i32 %54, ptr %55, align 4
  %56 = icmp sgt i64 %indvars.iv49, 1
  br i1 %56, label %.lr.ph31.split.us37, label %._crit_edge.us, !llvm.loop !12

._crit_edge.us:                                   ; preds = %_ZN7RSCoder6gfMultEii.exit.us35, %_ZN7RSCoder6gfMultEii.exit.us.us
  %or.cond.i24.us = or i1 %28, %19
  br i1 %or.cond.i24.us, label %_ZN7RSCoder6gfMultEii.exit25.us, label %31

_ZN7RSCoder6gfMultEii.exit.us.us:                 ; preds = %.lr.ph31.us, %_ZN7RSCoder6gfMultEii.exit.us.us
  %indvars.iv52 = phi i64 [ %indvars.iv.next53, %_ZN7RSCoder6gfMultEii.exit.us.us ], [ %22, %.lr.ph31.us ]
  %indvars.iv.next53 = add nsw i64 %indvars.iv52, -1
  %57 = getelementptr inbounds [256 x i32], ptr %5, i64 0, i64 %indvars.iv.next53
  %58 = load i32, ptr %57, align 4
  %59 = getelementptr inbounds [256 x i32], ptr %5, i64 0, i64 %indvars.iv52
  store i32 %58, ptr %59, align 4
  %60 = icmp sgt i64 %indvars.iv52, 1
  br i1 %60, label %_ZN7RSCoder6gfMultEii.exit.us.us, label %._crit_edge.us, !llvm.loop !12

.lr.ph33.split:                                   ; preds = %.lr.ph33
  br i1 %19, label %.lr.ph33.split.split.us, label %.lr.ph33.split.split.preheader

.lr.ph33.split.split.preheader:                   ; preds = %.lr.ph33.split
  %wide.trip.count = zext nneg i32 %2 to i64
  br label %.lr.ph33.split.split

.lr.ph33.split.split.us:                          ; preds = %.lr.ph33.split
  store i32 0, ptr %5, align 16
  br label %.preheader

.preheader:                                       ; preds = %_ZN7RSCoder6gfMultEii.exit25, %_ZN7RSCoder6gfMultEii.exit25.us, %.lr.ph33.split.split.us, %.preheader26
  %61 = icmp sgt i32 %7, 0
  br i1 %61, label %.lr.ph42, label %._crit_edge

.lr.ph33.split.split:                             ; preds = %.lr.ph33.split.split.preheader, %_ZN7RSCoder6gfMultEii.exit25
  %indvars.iv = phi i64 [ 0, %.lr.ph33.split.split.preheader ], [ %indvars.iv.next, %_ZN7RSCoder6gfMultEii.exit25 ]
  %62 = getelementptr inbounds i8, ptr %1, i64 %indvars.iv
  %63 = load i8, ptr %62, align 1
  %64 = zext i8 %63 to i32
  %65 = load i32, ptr %14, align 4
  %66 = xor i32 %65, %64
  %67 = icmp eq i32 %66, 0
  br i1 %67, label %_ZN7RSCoder6gfMultEii.exit25, label %68

68:                                               ; preds = %.lr.ph33.split.split
  %69 = load i32, ptr %21, align 4
  %70 = sext i32 %66 to i64
  %71 = getelementptr inbounds [256 x i32], ptr %17, i64 0, i64 %70
  %72 = load i32, ptr %71, align 4
  %73 = add nsw i32 %72, %69
  %74 = sext i32 %73 to i64
  %75 = getelementptr inbounds [512 x i32], ptr %0, i64 0, i64 %74
  %76 = load i32, ptr %75, align 4
  br label %_ZN7RSCoder6gfMultEii.exit25

_ZN7RSCoder6gfMultEii.exit25:                     ; preds = %.lr.ph33.split.split, %68
  %77 = phi i32 [ %76, %68 ], [ 0, %.lr.ph33.split.split ]
  store i32 %77, ptr %5, align 16
  %indvars.iv.next = add nuw nsw i64 %indvars.iv, 1
  %exitcond.not = icmp eq i64 %indvars.iv.next, %wide.trip.count
  br i1 %exitcond.not, label %.preheader, label %.lr.ph33.split.split, !llvm.loop !11

.lr.ph42:                                         ; preds = %.preheader, %.lr.ph42
  %indvars.iv60 = phi i64 [ %indvars.iv.next61, %.lr.ph42 ], [ 0, %.preheader ]
  %78 = phi i32 [ %87, %.lr.ph42 ], [ %7, %.preheader ]
  %79 = trunc nuw nsw i64 %indvars.iv60 to i32
  %80 = xor i32 %79, -1
  %81 = add i32 %78, %80
  %82 = sext i32 %81 to i64
  %83 = getelementptr inbounds [256 x i32], ptr %5, i64 0, i64 %82
  %84 = load i32, ptr %83, align 4
  %85 = trunc i32 %84 to i8
  %86 = getelementptr inbounds i8, ptr %3, i64 %indvars.iv60
  store i8 %85, ptr %86, align 1
  %indvars.iv.next61 = add nuw nsw i64 %indvars.iv60, 1
  %87 = load i32, ptr %6, align 4
  %88 = sext i32 %87 to i64
  %89 = icmp slt i64 %indvars.iv.next61, %88
  br i1 %89, label %.lr.ph42, label %._crit_edge, !llvm.loop !13

._crit_edge:                                      ; preds = %.lr.ph42, %.preheader
  ret void
}